; Function Attrs: mustprogress nofree norecurse nosync nounwind willreturn memory(read, inaccessiblemem: none) uwtable
define hidden zeroext i1 @Curl_is_in_callback(ptr noundef readonly %0) local_unnamed_addr #13 {
  %.not = icmp eq ptr %0, null
  br i1 %.not, label %10, label %2

2:                                                ; preds = %1
  %3 = getelementptr inbounds nuw i8, ptr %0, i64 208
  %4 = load ptr, ptr %3, align 8, !tbaa !92
  %.not4 = icmp eq ptr %4, null
  br i1 %.not4, label %10, label %5

5:                                                ; preds = %2
  %6 = getelementptr inbounds nuw i8, ptr %4, i64 649
  %7 = load i8, ptr %6, align 1
  %8 = and i8 %7, 4
  %9 = icmp ne i8 %8, 0
  br label %10

10:                                               ; preds = %5, %2, %1
  %11 = phi i1 [ false, %2 ], [ false, %1 ], [ %9, %5 ]
  ret i1 %11
}